target datalayout = "e-m:e-p270:32:32-p271:32:32-p272:64:64-i64:64-i128:128-f80:128-n8:16:32:64-S128"
target triple = "x86_64-unknown-linux-gnu"

%struct.MachineClass = type { %struct.ObjectClass, ptr, ptr, ptr, ptr, ptr, ptr, ptr, ptr, ptr, i32, i32, i32, i32, i32, i8, i8, ptr, ptr, ptr, ptr, ptr, ptr, i64, ptr, i8, i8, i8, i32, i8, i8, i32, ptr, ptr, i8, i8, i8, i8, i8, i8, i8, i8, %struct.SMPCompatProps, ptr, ptr, ptr, ptr, ptr, ptr, ptr }
%struct.ObjectClass = type { ptr, ptr, [4 x ptr], [4 x ptr], ptr, ptr }
%struct.SMPCompatProps = type { i8, i8, i8, i8, i8, i8 }

@.str = private unnamed_addr constant [35 x i8] c"../qemu/hw/core/machine-qmp-cmds.c\00", align 1
@.str.1 = private unnamed_addr constant [8 x i8] c"machine\00", align 1
@__func__.qmp_query_hotpluggable_cpus = private unnamed_addr constant [28 x i8] c"qmp_query_hotpluggable_cpus\00", align 1
@.str.3 = private unnamed_addr constant [43 x i8] c"machine does not support hot-plugging CPUs\00", align 1
@.str.15 = private unnamed_addr constant [98 x i8] c"/home/dtcxzyw/WorkSpace/Projects/compilers/llvm-opt-benchmark/bench/qemu/qemu/include/hw/boards.h\00", align 1
@__func__.MACHINE = private unnamed_addr constant [8 x i8] c"MACHINE\00", align 1
@__func__.MACHINE_GET_CLASS = private unnamed_addr constant [18 x i8] c"MACHINE_GET_CLASS\00", align 1

; Function Attrs: nounwind sspstrong uwtable
define internal ptr @MACHINE_GET_CLASS(ptr noundef %obj) #0 {
entry:
  %obj.addr = alloca ptr, align 8
  store ptr %obj, ptr %obj.addr, align 8
  %0 = load ptr, ptr %obj.addr, align 8
  %call = call ptr @object_get_class(ptr noundef %0)
  %call1 = call ptr @object_class_dynamic_cast_assert(ptr noundef %call, ptr noundef @.str.1, ptr noundef @.str.15, i32 noundef 23, ptr noundef @__func__.MACHINE_GET_CLASS)
  ret ptr %call1
}

; Function Attrs: nounwind sspstrong uwtable
define internal ptr @MACHINE(ptr noundef %obj) #0 {
entry:
  %obj.addr = alloca ptr, align 8
  store ptr %obj, ptr %obj.addr, align 8
  %0 = load ptr, ptr %obj.addr, align 8
  %call = call ptr @object_dynamic_cast_assert(ptr noundef %0, ptr noundef @.str.1, ptr noundef @.str.15, i32 noundef 23, ptr noundef @__func__.MACHINE)
  ret ptr %call
}

; Function Attrs: nounwind sspstrong uwtable
define dso_local ptr @qmp_query_hotpluggable_cpus(ptr noundef %errp) #0 {
entry:
  %retval = alloca ptr, align 8
  %errp.addr = alloca ptr, align 8
  %ms = alloca ptr, align 8
  %mc = alloca ptr, align 8
  store ptr %errp, ptr %errp.addr, align 8
  %call = call ptr @qdev_get_machine()
  %call1 = call ptr @MACHINE(ptr noundef %call)
  store ptr %call1, ptr %ms, align 8
  %0 = load ptr, ptr %ms, align 8
  %call2 = call ptr @MACHINE_GET_CLASS(ptr noundef %0)
  store ptr %call2, ptr %mc, align 8
  %1 = load ptr, ptr %mc, align 8
  %has_hotpluggable_cpus = getelementptr inbounds %struct.MachineClass, ptr %1, i32 0, i32 29
  %2 = load i8, ptr %has_hotpluggable_cpus, align 8
  %tobool = trunc i8 %2 to i1
  br i1 %tobool, label %if.end, label %if.then

if.then:                                          ; preds = %entry
  %3 = load ptr, ptr %errp.addr, align 8
  call void (ptr, ptr, i32, ptr, ptr, ...) @error_setg_internal(ptr noundef %3, ptr noundef @.str, i32 noundef 132, ptr noundef @__func__.qmp_query_hotpluggable_cpus, ptr noundef @.str.3)
  store ptr null, ptr %retval, align 8
  br label %return

if.end:                                           ; preds = %entry
  %4 = load ptr, ptr %ms, align 8
  %call3 = call ptr @machine_query_hotpluggable_cpus(ptr noundef %4)
  store ptr %call3, ptr %retval, align 8
  br label %return

return:                                           ; preds = %if.end, %if.then
  %5 = load ptr, ptr %retval, align 8
  ret ptr %5
}