; Function Attrs: nounwind sspstrong uwtable
define dso_local ptr @qmp_query_hotpluggable_cpus(ptr noundef %errp) local_unnamed_addr #0 {
entry:
  %call = tail call ptr @qdev_get_machine() #7
  %call.i = tail call ptr @object_dynamic_cast_assert(ptr noundef %call, ptr noundef nonnull @.str.1, ptr noundef nonnull @.str.15, i32 noundef 23, ptr noundef nonnull @__func__.MACHINE) #7
  %call.i2 = tail call ptr @object_get_class(ptr noundef %call.i) #7
  %call1.i = tail call ptr @object_class_dynamic_cast_assert(ptr noundef %call.i2, ptr noundef nonnull @.str.1, ptr noundef nonnull @.str.15, i32 noundef 23, ptr noundef nonnull @__func__.MACHINE_GET_CLASS) #7
  %has_hotpluggable_cpus = getelementptr inbounds nuw i8, ptr %call1.i, i64 264
  %0 = load i8, ptr %has_hotpluggable_cpus, align 8
  %tobool = trunc i8 %0 to i1
  br i1 %tobool, label %if.end, label %if.then

if.then:                                          ; preds = %entry
  tail call void (ptr, ptr, i32, ptr, ptr, ...) @error_setg_internal(ptr noundef %errp, ptr noundef nonnull @.str, i32 noundef 132, ptr noundef nonnull @__func__.qmp_query_hotpluggable_cpus, ptr noundef nonnull @.str.3) #7
  br label %return

if.end:                                           ; preds = %entry
  %call3 = tail call ptr @machine_query_hotpluggable_cpus(ptr noundef %call.i) #7
  br label %return

return:                                           ; preds = %if.end, %if.then
  %retval.0 = phi ptr [ %call3, %if.end ], [ null, %if.then ]
  ret ptr %retval.0
}